; Function Attrs: nounwind uwtable
define hidden zeroext i1 @je_malloc_mutex_init(ptr noundef initializes((0, 64)) %0, ptr noundef readnone captures(none) %1, i32 noundef %2, i32 noundef %3) local_unnamed_addr #0 {
  %5 = alloca %union.pthread_mutexattr_t, align 4
  tail call void @llvm.memset.p0.i64(ptr noundef nonnull align 8 dereferenceable(64) %0, i8 0, i64 64, i1 false)
  %6 = getelementptr inbounds nuw i8, ptr %0, i64 8
  tail call void @je_nstime_copy(ptr noundef nonnull %6, ptr noundef nonnull @nstime_zero) #7
  tail call void @je_nstime_copy(ptr noundef nonnull %0, ptr noundef nonnull @nstime_zero) #7
  %7 = getelementptr inbounds nuw i8, ptr %0, i64 48
  store ptr null, ptr %7, align 8, !tbaa !22
  call void @llvm.lifetime.start.p0(i64 4, ptr nonnull %5) #7
  %8 = call i32 @pthread_mutexattr_init(ptr noundef nonnull %5) #7
  %.not = icmp eq i32 %8, 0
  br i1 %.not, label %9, label %14

9:                                                ; preds = %4
  %10 = call i32 @pthread_mutexattr_settype(ptr noundef nonnull %5, i32 noundef 0) #7
  %11 = getelementptr inbounds nuw i8, ptr %0, i64 72
  %12 = call i32 @pthread_mutex_init(ptr noundef nonnull %11, ptr noundef nonnull %5) #7
  %.not3 = icmp ne i32 %12, 0
  %13 = call i32 @pthread_mutexattr_destroy(ptr noundef nonnull %5) #7
  br label %14

14:                                               ; preds = %9, %4
  %.0 = phi i1 [ true, %4 ], [ %.not3, %9 ]
  call void @llvm.lifetime.end.p0(i64 4, ptr nonnull %5) #7
  ret i1 %.0
}